; Function Attrs: cold mustprogress nofree nosync nounwind optsize willreturn memory(readwrite, inaccessiblemem: none) uwtable
define internal noundef i32 @config_props(ptr noundef readonly captures(none) %0) #1 {
  %2 = load ptr, ptr %0, align 8, !tbaa !42
  %3 = getelementptr inbounds nuw i8, ptr %2, i64 72
  %4 = load ptr, ptr %3, align 8, !tbaa !4
  %5 = getelementptr inbounds nuw i8, ptr %4, i64 40
  %6 = load i64, ptr %5, align 8, !tbaa !31
  %7 = icmp sgt i64 %6, -1
  br i1 %7, label %8, label %13

8:                                                ; preds = %1
  %9 = getelementptr inbounds nuw i8, ptr %4, i64 32
  %10 = load i32, ptr %9, align 8, !tbaa !24
  %11 = sext i32 %10 to i64
  %12 = tail call i64 @av_rescale(i64 noundef %6, i64 noundef %11, i64 noundef 1000000) #9
  store i64 %12, ptr %5, align 8, !tbaa !31
  br label %13

13:                                               ; preds = %8, %1
  ret i32 0
}